target datalayout = "e-m:e-p270:32:32-p271:32:32-p272:64:64-i64:64-i128:128-f80:128-n8:16:32:64-S128"
target triple = "x86_64-pc-linux-gnu"

@.str.8 = private unnamed_addr constant [124 x i8] c"generated/home/dtcxzyw/WorkSpace/Projects/compilers/llvm-opt-benchmark/bench/libquic/libquic/boringssl/crypto/pem/pem_lib.c\00", align 1

; Function Attrs: nounwind uwtable
define hidden i32 @PEM_write(ptr noundef %0, ptr noundef %1, ptr noundef %2, ptr noundef %3, i64 noundef %4) #0 {
  %6 = alloca i32, align 4
  %7 = alloca ptr, align 8
  %8 = alloca ptr, align 8
  %9 = alloca ptr, align 8
  %10 = alloca ptr, align 8
  %11 = alloca i64, align 8
  %12 = alloca ptr, align 8
  %13 = alloca i32, align 4
  %14 = alloca i32, align 4
  store ptr %0, ptr %7, align 8, !tbaa !19
  store ptr %1, ptr %8, align 8, !tbaa !6
  store ptr %2, ptr %9, align 8, !tbaa !6
  store ptr %3, ptr %10, align 8, !tbaa !6
  store i64 %4, ptr %11, align 8, !tbaa !13
  call void @llvm.lifetime.start.p0(i64 8, ptr %12) #7
  call void @llvm.lifetime.start.p0(i64 4, ptr %13) #7
  %15 = call ptr @BIO_s_file()
  %16 = call ptr @BIO_new(ptr noundef %15)
  store ptr %16, ptr %12, align 8, !tbaa !21
  %17 = icmp eq ptr %16, null
  br i1 %17, label %18, label %19

18:                                               ; preds = %5
  call void @ERR_put_error(i32 noundef 9, i32 noundef 0, i32 noundef 7, ptr noundef @.str.8, i32 noundef 511)
  store i32 0, ptr %6, align 4
  store i32 1, ptr %14, align 4
  br label %32

19:                                               ; preds = %5
  %20 = load ptr, ptr %12, align 8, !tbaa !21
  %21 = load ptr, ptr %7, align 8, !tbaa !19
  %22 = call i32 @BIO_set_fp(ptr noundef %20, ptr noundef %21, i32 noundef 0)
  %23 = load ptr, ptr %12, align 8, !tbaa !21
  %24 = load ptr, ptr %8, align 8, !tbaa !6
  %25 = load ptr, ptr %9, align 8, !tbaa !6
  %26 = load ptr, ptr %10, align 8, !tbaa !6
  %27 = load i64, ptr %11, align 8, !tbaa !13
  %28 = call i32 @PEM_write_bio(ptr noundef %23, ptr noundef %24, ptr noundef %25, ptr noundef %26, i64 noundef %27)
  store i32 %28, ptr %13, align 4, !tbaa !11
  %29 = load ptr, ptr %12, align 8, !tbaa !21
  %30 = call i32 @BIO_free(ptr noundef %29)
  %31 = load i32, ptr %13, align 4, !tbaa !11
  store i32 %31, ptr %6, align 4
  store i32 1, ptr %14, align 4
  br label %32

32:                                               ; preds = %19, %18
  call void @llvm.lifetime.end.p0(i64 4, ptr %13) #7
  call void @llvm.lifetime.end.p0(i64 8, ptr %12) #7
  %33 = load i32, ptr %6, align 4
  ret i32 %33
}