; Function Attrs: nounwind uwtable
define hidden i32 @PEM_write(ptr noundef %0, ptr noundef %1, ptr noundef %2, ptr noundef %3, i64 noundef %4) local_unnamed_addr #0 {
  %6 = tail call ptr @BIO_s_file() #12
  %7 = tail call ptr @BIO_new(ptr noundef %6) #12
  %8 = icmp eq ptr %7, null
  br i1 %8, label %9, label %10

9:                                                ; preds = %5
  tail call void @ERR_put_error(i32 noundef 9, i32 noundef 0, i32 noundef 7, ptr noundef nonnull @.str.8, i32 noundef 511) #12
  br label %14

10:                                               ; preds = %5
  %11 = tail call i32 @BIO_set_fp(ptr noundef nonnull %7, ptr noundef %0, i32 noundef 0) #12
  %12 = tail call i32 @PEM_write_bio(ptr noundef nonnull %7, ptr noundef %1, ptr noundef %2, ptr noundef %3, i64 noundef %4)
  %13 = tail call i32 @BIO_free(ptr noundef nonnull %7) #12
  br label %14

14:                                               ; preds = %10, %9
  %.0 = phi i32 [ 0, %9 ], [ %12, %10 ]
  ret i32 %.0
}